target datalayout = "e-m:e-p270:32:32-p271:32:32-p272:64:64-i64:64-i128:128-f80:128-n8:16:32:64-S128"
target triple = "x86_64-pc-linux-gnu"

%struct.Aig_Obj_t_ = type { %union.anon, ptr, ptr, i64, i32, i32, %union.anon.0 }
%union.anon = type { ptr }
%union.anon.0 = type { ptr }
%struct.Aig_Man_t_ = type { ptr, ptr, ptr, ptr, ptr, ptr, ptr, %struct.Aig_Obj_t_, i32, i32, i32, i32, i32, i32, [7 x i32], i32, ptr, i32, ptr, i32, ptr, i32, i32, i32, ptr, i32, i32, i32, i32, i32, ptr, ptr, i32, ptr, ptr, i32, ptr, ptr, i32, i32, i32, ptr, ptr, ptr, ptr, ptr, ptr, ptr, ptr, ptr, ptr, ptr, ptr, ptr, ptr, i32, ptr, ptr, ptr, ptr, i32, i64, i64, i64, ptr, ptr }
%struct.Vec_Ptr_t_ = type { i32, i32, ptr }
%struct.Vec_Str_t_ = type { i32, i32, ptr }
%struct.timespec = type { i64, i64 }

@.str.1 = private unnamed_addr constant [48 x i8] c"Design 1: Synchronizing sequence is not found. \00", align 1
@.str.2 = private unnamed_addr constant [58 x i8] c"Design 1: Synchronizing sequence of length %4d is found. \00", align 1
@.str.3 = private unnamed_addr constant [5 x i8] c"%s =\00", align 1
@.str.4 = private unnamed_addr constant [5 x i8] c"Time\00", align 1
@.str.5 = private unnamed_addr constant [11 x i8] c"%9.2f sec\0A\00", align 1
@.str.6 = private unnamed_addr constant [2 x i8] c"\0A\00", align 1
@.str.7 = private unnamed_addr constant [27 x i8] c"Quitting synchronization.\0A\00", align 1

; Function Attrs: inlinehint nounwind uwtable
define internal ptr @Vec_PtrAllocArray(ptr noundef %0, i32 noundef %1) #2 {
  %3 = alloca ptr, align 8
  %4 = alloca i32, align 4
  %5 = alloca ptr, align 8
  store ptr %0, ptr %3, align 8, !tbaa !31
  store i32 %1, ptr %4, align 4, !tbaa !10
  call void @llvm.lifetime.start.p0(i64 8, ptr %5) #10
  %6 = call noalias ptr @malloc(i64 noundef 16) #12
  store ptr %6, ptr %5, align 8, !tbaa !8
  %7 = load i32, ptr %4, align 4, !tbaa !10
  %8 = load ptr, ptr %5, align 8, !tbaa !8
  %9 = getelementptr inbounds nuw %struct.Vec_Ptr_t_, ptr %8, i32 0, i32 1
  store i32 %7, ptr %9, align 4, !tbaa !55
  %10 = load i32, ptr %4, align 4, !tbaa !10
  %11 = load ptr, ptr %5, align 8, !tbaa !8
  %12 = getelementptr inbounds nuw %struct.Vec_Ptr_t_, ptr %11, i32 0, i32 0
  store i32 %10, ptr %12, align 8, !tbaa !88
  %13 = load ptr, ptr %3, align 8, !tbaa !31
  %14 = load ptr, ptr %5, align 8, !tbaa !8
  %15 = getelementptr inbounds nuw %struct.Vec_Ptr_t_, ptr %14, i32 0, i32 2
  store ptr %13, ptr %15, align 8, !tbaa !29
  %16 = load ptr, ptr %5, align 8, !tbaa !8
  call void @llvm.lifetime.end.p0(i64 8, ptr %5) #10
  ret ptr %16
}

; Function Attrs: inlinehint nounwind uwtable
define internal i32 @Vec_PtrSize(ptr noundef %0) #2 {
  %2 = alloca ptr, align 8
  store ptr %0, ptr %2, align 8, !tbaa !8
  %3 = load ptr, ptr %2, align 8, !tbaa !8
  %4 = getelementptr inbounds nuw %struct.Vec_Ptr_t_, ptr %3, i32 0, i32 1
  %5 = load i32, ptr %4, align 4, !tbaa !55
  ret i32 %5
}

; Function Attrs: inlinehint nounwind uwtable
define internal void @Vec_StrFree(ptr noundef %0) #2 {
  %2 = alloca ptr, align 8
  store ptr %0, ptr %2, align 8, !tbaa !65
  %3 = load ptr, ptr %2, align 8, !tbaa !65
  %4 = getelementptr inbounds nuw %struct.Vec_Str_t_, ptr %3, i32 0, i32 2
  %5 = load ptr, ptr %4, align 8, !tbaa !73
  %6 = icmp ne ptr %5, null
  br i1 %6, label %7, label %13

7:                                                ; preds = %1
  %8 = load ptr, ptr %2, align 8, !tbaa !65
  %9 = getelementptr inbounds nuw %struct.Vec_Str_t_, ptr %8, i32 0, i32 2
  %10 = load ptr, ptr %9, align 8, !tbaa !73
  call void @free(ptr noundef %10) #10
  %11 = load ptr, ptr %2, align 8, !tbaa !65
  %12 = getelementptr inbounds nuw %struct.Vec_Str_t_, ptr %11, i32 0, i32 2
  store ptr null, ptr %12, align 8, !tbaa !73
  br label %14

13:                                               ; preds = %1
  br label %14

14:                                               ; preds = %13, %7
  %15 = load ptr, ptr %2, align 8, !tbaa !65
  %16 = icmp ne ptr %15, null
  br i1 %16, label %17, label %19

17:                                               ; preds = %14
  %18 = load ptr, ptr %2, align 8, !tbaa !65
  call void @free(ptr noundef %18) #10
  store ptr null, ptr %2, align 8, !tbaa !65
  br label %20

19:                                               ; preds = %14
  br label %20

20:                                               ; preds = %19, %17
  ret void
}

; Function Attrs: inlinehint nounwind uwtable
define internal void @Vec_PtrFree(ptr noundef %0) #2 {
  %2 = alloca ptr, align 8
  store ptr %0, ptr %2, align 8, !tbaa !8
  %3 = load ptr, ptr %2, align 8, !tbaa !8
  %4 = getelementptr inbounds nuw %struct.Vec_Ptr_t_, ptr %3, i32 0, i32 2
  %5 = load ptr, ptr %4, align 8, !tbaa !29
  %6 = icmp ne ptr %5, null
  br i1 %6, label %7, label %13

7:                                                ; preds = %1
  %8 = load ptr, ptr %2, align 8, !tbaa !8
  %9 = getelementptr inbounds nuw %struct.Vec_Ptr_t_, ptr %8, i32 0, i32 2
  %10 = load ptr, ptr %9, align 8, !tbaa !29
  call void @free(ptr noundef %10) #10
  %11 = load ptr, ptr %2, align 8, !tbaa !8
  %12 = getelementptr inbounds nuw %struct.Vec_Ptr_t_, ptr %11, i32 0, i32 2
  store ptr null, ptr %12, align 8, !tbaa !29
  br label %14

13:                                               ; preds = %1
  br label %14

14:                                               ; preds = %13, %7
  %15 = load ptr, ptr %2, align 8, !tbaa !8
  %16 = icmp ne ptr %15, null
  br i1 %16, label %17, label %19

17:                                               ; preds = %14
  %18 = load ptr, ptr %2, align 8, !tbaa !8
  call void @free(ptr noundef %18) #10
  store ptr null, ptr %2, align 8, !tbaa !8
  br label %20

19:                                               ; preds = %14
  br label %20

20:                                               ; preds = %19, %17
  ret void
}

; Function Attrs: inlinehint nounwind uwtable
define internal ptr @Vec_PtrAllocSimInfo(i32 noundef %0, i32 noundef %1) #2 {
  %3 = alloca i32, align 4
  %4 = alloca i32, align 4
  %5 = alloca ptr, align 8
  %6 = alloca ptr, align 8
  %7 = alloca i32, align 4
  store i32 %0, ptr %3, align 4, !tbaa !10
  store i32 %1, ptr %4, align 4, !tbaa !10
  call void @llvm.lifetime.start.p0(i64 8, ptr %5) #10
  call void @llvm.lifetime.start.p0(i64 8, ptr %6) #10
  call void @llvm.lifetime.start.p0(i64 4, ptr %7) #10
  %8 = load i32, ptr %4, align 4, !tbaa !10
  %9 = sext i32 %8 to i64
  %10 = mul i64 4, %9
  %11 = add i64 8, %10
  %12 = load i32, ptr %3, align 4, !tbaa !10
  %13 = sext i32 %12 to i64
  %14 = mul i64 %11, %13
  %15 = mul i64 1, %14
  %16 = call noalias ptr @malloc(i64 noundef %15) #12
  store ptr %16, ptr %5, align 8, !tbaa !31
  %17 = load ptr, ptr %5, align 8, !tbaa !31
  %18 = load i32, ptr %3, align 4, !tbaa !10
  %19 = sext i32 %18 to i64
  %20 = getelementptr inbounds ptr, ptr %17, i64 %19
  store ptr %20, ptr %6, align 8, !tbaa !16
  store i32 0, ptr %7, align 4, !tbaa !10
  br label %21

21:                                               ; preds = %36, %2
  %22 = load i32, ptr %7, align 4, !tbaa !10
  %23 = load i32, ptr %3, align 4, !tbaa !10
  %24 = icmp slt i32 %22, %23
  br i1 %24, label %25, label %39

25:                                               ; preds = %21
  %26 = load ptr, ptr %6, align 8, !tbaa !16
  %27 = load i32, ptr %7, align 4, !tbaa !10
  %28 = load i32, ptr %4, align 4, !tbaa !10
  %29 = mul nsw i32 %27, %28
  %30 = sext i32 %29 to i64
  %31 = getelementptr inbounds i32, ptr %26, i64 %30
  %32 = load ptr, ptr %5, align 8, !tbaa !31
  %33 = load i32, ptr %7, align 4, !tbaa !10
  %34 = sext i32 %33 to i64
  %35 = getelementptr inbounds ptr, ptr %32, i64 %34
  store ptr %31, ptr %35, align 8, !tbaa !31
  br label %36

36:                                               ; preds = %25
  %37 = load i32, ptr %7, align 4, !tbaa !10
  %38 = add nsw i32 %37, 1
  store i32 %38, ptr %7, align 4, !tbaa !10
  br label %21, !llvm.loop !78

39:                                               ; preds = %21
  %40 = load ptr, ptr %5, align 8, !tbaa !31
  %41 = load i32, ptr %3, align 4, !tbaa !10
  %42 = call ptr @Vec_PtrAllocArray(ptr noundef %40, i32 noundef %41)
  call void @llvm.lifetime.end.p0(i64 4, ptr %7) #10
  call void @llvm.lifetime.end.p0(i64 8, ptr %6) #10
  call void @llvm.lifetime.end.p0(i64 8, ptr %5) #10
  ret ptr %42
}

; Function Attrs: inlinehint nounwind uwtable
define internal i32 @Aig_ManObjNumMax(ptr noundef %0) #2 {
  %2 = alloca ptr, align 8
  store ptr %0, ptr %2, align 8, !tbaa !3
  %3 = load ptr, ptr %2, align 8, !tbaa !3
  %4 = getelementptr inbounds nuw %struct.Aig_Man_t_, ptr %3, i32 0, i32 4
  %5 = load ptr, ptr %4, align 8, !tbaa !45
  %6 = call i32 @Vec_PtrSize(ptr noundef %5)
  ret i32 %6
}

; Function Attrs: inlinehint nounwind uwtable
define internal i32 @Saig_ManPiNum(ptr noundef %0) #2 {
  %2 = alloca ptr, align 8
  store ptr %0, ptr %2, align 8, !tbaa !3
  %3 = load ptr, ptr %2, align 8, !tbaa !3
  %4 = getelementptr inbounds nuw %struct.Aig_Man_t_, ptr %3, i32 0, i32 9
  %5 = load i32, ptr %4, align 4, !tbaa !36
  ret i32 %5
}

; Function Attrs: inlinehint nounwind uwtable
define internal i32 @Vec_StrSize(ptr noundef %0) #2 {
  %2 = alloca ptr, align 8
  store ptr %0, ptr %2, align 8, !tbaa !65
  %3 = load ptr, ptr %2, align 8, !tbaa !65
  %4 = getelementptr inbounds nuw %struct.Vec_Str_t_, ptr %3, i32 0, i32 1
  %5 = load i32, ptr %4, align 4, !tbaa !70
  ret i32 %5
}

; Function Attrs: inlinehint nounwind uwtable
define internal i64 @Abc_Clock() #2 {
  %1 = alloca i64, align 8
  %2 = alloca %struct.timespec, align 8
  %3 = alloca i32, align 4
  %4 = alloca i64, align 8
  call void @llvm.lifetime.start.p0(i64 16, ptr %2) #10
  %5 = call i32 @clock_gettime(i32 noundef 1, ptr noundef %2) #10
  %6 = icmp slt i32 %5, 0
  br i1 %6, label %7, label %8

7:                                                ; preds = %0
  store i64 -1, ptr %1, align 8
  store i32 1, ptr %3, align 4
  br label %19

8:                                                ; preds = %0
  call void @llvm.lifetime.start.p0(i64 8, ptr %4) #10
  %9 = getelementptr inbounds nuw %struct.timespec, ptr %2, i32 0, i32 0
  %10 = load i64, ptr %9, align 8, !tbaa !89
  %11 = mul nsw i64 %10, 1000000
  store i64 %11, ptr %4, align 8, !tbaa !85
  %12 = getelementptr inbounds nuw %struct.timespec, ptr %2, i32 0, i32 1
  %13 = load i64, ptr %12, align 8, !tbaa !91
  %14 = mul nsw i64 %13, 1000000
  %15 = sdiv i64 %14, 1000000000
  %16 = load i64, ptr %4, align 8, !tbaa !85
  %17 = add nsw i64 %16, %15
  store i64 %17, ptr %4, align 8, !tbaa !85
  %18 = load i64, ptr %4, align 8, !tbaa !85
  store i64 %18, ptr %1, align 8
  store i32 1, ptr %3, align 4
  call void @llvm.lifetime.end.p0(i64 8, ptr %4) #10
  br label %19

19:                                               ; preds = %8, %7
  call void @llvm.lifetime.end.p0(i64 16, ptr %2) #10
  %20 = load i64, ptr %1, align 8
  ret i64 %20
}

; Function Attrs: nounwind uwtable
define ptr @Saig_SynchSequenceApply(ptr noundef %0, i32 noundef %1, i32 noundef %2) #0 {
  %4 = alloca ptr, align 8
  %5 = alloca ptr, align 8
  %6 = alloca i32, align 4
  %7 = alloca i32, align 4
  %8 = alloca ptr, align 8
  %9 = alloca ptr, align 8
  %10 = alloca ptr, align 8
  %11 = alloca i32, align 4
  %12 = alloca i64, align 8
  %13 = alloca i32, align 4
  store ptr %0, ptr %5, align 8, !tbaa !3
  store i32 %1, ptr %6, align 4, !tbaa !10
  store i32 %2, ptr %7, align 4, !tbaa !10
  call void @llvm.lifetime.start.p0(i64 8, ptr %8) #10
  call void @llvm.lifetime.start.p0(i64 8, ptr %9) #10
  call void @llvm.lifetime.start.p0(i64 8, ptr %10) #10
  call void @llvm.lifetime.start.p0(i64 4, ptr %11) #10
  call void @llvm.lifetime.start.p0(i64 8, ptr %12) #10
  %14 = call i64 @Abc_Clock()
  store i64 %14, ptr %12, align 8, !tbaa !85
  %15 = load ptr, ptr %5, align 8, !tbaa !3
  %16 = load i32, ptr %6, align 4, !tbaa !10
  %17 = call ptr @Saig_SynchSequence(ptr noundef %15, i32 noundef %16)
  store ptr %17, ptr %9, align 8, !tbaa !65
  %18 = load ptr, ptr %9, align 8, !tbaa !65
  %19 = icmp eq ptr %18, null
  br i1 %19, label %20, label %22

20:                                               ; preds = %3
  %21 = call i32 (ptr, ...) @printf(ptr noundef @.str.1)
  br label %33

22:                                               ; preds = %3
  %23 = load i32, ptr %7, align 4, !tbaa !10
  %24 = icmp ne i32 %23, 0
  br i1 %24, label %25, label %32

25:                                               ; preds = %22
  %26 = load ptr, ptr %9, align 8, !tbaa !65
  %27 = call i32 @Vec_StrSize(ptr noundef %26)
  %28 = load ptr, ptr %5, align 8, !tbaa !3
  %29 = call i32 @Saig_ManPiNum(ptr noundef %28)
  %30 = sdiv i32 %27, %29
  %31 = call i32 (ptr, ...) @printf(ptr noundef @.str.2, i32 noundef %30)
  br label %32

32:                                               ; preds = %25, %22
  br label %33

33:                                               ; preds = %32, %20
  %34 = load i32, ptr %7, align 4, !tbaa !10
  %35 = icmp ne i32 %34, 0
  br i1 %35, label %36, label %43

36:                                               ; preds = %33
  call void (i32, ptr, ...) @Abc_Print(i32 noundef 1, ptr noundef @.str.3, ptr noundef @.str.4)
  %37 = call i64 @Abc_Clock()
  %38 = load i64, ptr %12, align 8, !tbaa !85
  %39 = sub nsw i64 %37, %38
  %40 = sitofp i64 %39 to double
  %41 = fmul double 1.000000e+00, %40
  %42 = fdiv double %41, 1.000000e+06
  call void (i32, ptr, ...) @Abc_Print(i32 noundef 1, ptr noundef @.str.5, double noundef %42)
  br label %45

43:                                               ; preds = %33
  %44 = call i32 (ptr, ...) @printf(ptr noundef @.str.6)
  br label %45

45:                                               ; preds = %43, %36
  %46 = load ptr, ptr %9, align 8, !tbaa !65
  %47 = icmp eq ptr %46, null
  br i1 %47, label %48, label %50

48:                                               ; preds = %45
  %49 = call i32 (ptr, ...) @printf(ptr noundef @.str.7)
  store ptr null, ptr %4, align 8
  store i32 1, ptr %13, align 4
  br label %64

50:                                               ; preds = %45
  %51 = load ptr, ptr %5, align 8, !tbaa !3
  %52 = call i32 @Aig_ManObjNumMax(ptr noundef %51)
  %53 = call ptr @Vec_PtrAllocSimInfo(i32 noundef %52, i32 noundef 1)
  store ptr %53, ptr %10, align 8, !tbaa !8
  %54 = load ptr, ptr %5, align 8, !tbaa !3
  %55 = load ptr, ptr %10, align 8, !tbaa !8
  %56 = load ptr, ptr %9, align 8, !tbaa !65
  %57 = call i32 @Saig_SynchSequenceRun(ptr noundef %54, ptr noundef %55, ptr noundef %56, i32 noundef 1)
  store i32 %57, ptr %11, align 4, !tbaa !10
  %58 = load ptr, ptr %5, align 8, !tbaa !3
  %59 = call ptr @Saig_ManDupInitZero(ptr noundef %58)
  store ptr %59, ptr %8, align 8, !tbaa !3
  %60 = load ptr, ptr %10, align 8, !tbaa !8
  call void @Vec_PtrFree(ptr noundef %60)
  %61 = load ptr, ptr %9, align 8, !tbaa !65
  call void @Vec_StrFree(ptr noundef %61)
  %62 = load ptr, ptr %5, align 8, !tbaa !3
  call void @Aig_ManCleanMarkA(ptr noundef %62)
  %63 = load ptr, ptr %8, align 8, !tbaa !3
  store ptr %63, ptr %4, align 8
  store i32 1, ptr %13, align 4
  br label %64

64:                                               ; preds = %50, %48
  call void @llvm.lifetime.end.p0(i64 8, ptr %12) #10
  call void @llvm.lifetime.end.p0(i64 4, ptr %11) #10
  call void @llvm.lifetime.end.p0(i64 8, ptr %10) #10
  call void @llvm.lifetime.end.p0(i64 8, ptr %9) #10
  call void @llvm.lifetime.end.p0(i64 8, ptr %8) #10
  %65 = load ptr, ptr %4, align 8
  ret ptr %65
}