; Function Attrs: nounwind uwtable
define ptr @Saig_SynchSequenceApply(ptr noundef %0, i32 noundef %1, i32 noundef %2) local_unnamed_addr #3 {
  %4 = alloca %struct.timespec, align 8
  %5 = alloca %struct.timespec, align 8
  call void @llvm.lifetime.start.p0(i64 16, ptr nonnull %5) #18
  %6 = call i32 @clock_gettime(i32 noundef 1, ptr noundef nonnull %5) #18
  %7 = icmp slt i32 %6, 0
  br i1 %7, label %Abc_Clock.exit, label %8

8:                                                ; preds = %3
  %9 = load i64, ptr %5, align 8, !tbaa !77
  %.neg26 = mul i64 %9, -1000000
  %10 = getelementptr inbounds nuw i8, ptr %5, i64 8
  %11 = load i64, ptr %10, align 8, !tbaa !79
  %.neg = sdiv i64 %11, -1000
  %.neg27 = add i64 %.neg, %.neg26
  br label %Abc_Clock.exit

Abc_Clock.exit:                                   ; preds = %3, %8
  %.0.i.neg = phi i64 [ %.neg27, %8 ], [ 1, %3 ]
  call void @llvm.lifetime.end.p0(i64 16, ptr nonnull %5) #18
  %12 = call ptr @Saig_SynchSequence(ptr noundef %0, i32 noundef %1)
  %13 = icmp eq ptr %12, null
  br i1 %13, label %19, label %14

14:                                               ; preds = %Abc_Clock.exit
  %cond = icmp eq i32 %2, 0
  br i1 %cond, label %34, label %.thread

.thread:                                          ; preds = %14
  %15 = getelementptr i8, ptr %12, i64 4
  %.val20 = load i32, ptr %15, align 4, !tbaa !60
  %16 = getelementptr i8, ptr %0, i64 108
  %.val = load i32, ptr %16, align 4, !tbaa !28
  %17 = sdiv i32 %.val20, %.val
  %18 = call i32 (ptr, ...) @printf(ptr noundef nonnull dereferenceable(1) @.str.2, i32 noundef %17)
  br label %21

19:                                               ; preds = %Abc_Clock.exit
  %20 = call i32 (ptr, ...) @printf(ptr noundef nonnull dereferenceable(1) @.str.1)
  %.not19 = icmp eq i32 %2, 0
  br i1 %.not19, label %34, label %21

21:                                               ; preds = %.thread, %19
  call void (i32, ptr, ...) @Abc_Print(i32 poison, ptr noundef nonnull @.str.3, ptr noundef nonnull @.str.4)
  call void @llvm.lifetime.start.p0(i64 16, ptr nonnull %4) #18
  %22 = call i32 @clock_gettime(i32 noundef 1, ptr noundef nonnull %4) #18
  %23 = icmp slt i32 %22, 0
  br i1 %23, label %Abc_Clock.exit23, label %24

24:                                               ; preds = %21
  %25 = load i64, ptr %4, align 8, !tbaa !77
  %26 = mul nsw i64 %25, 1000000
  %27 = getelementptr inbounds nuw i8, ptr %4, i64 8
  %28 = load i64, ptr %27, align 8, !tbaa !79
  %29 = sdiv i64 %28, 1000
  %30 = add nsw i64 %29, %26
  br label %Abc_Clock.exit23

Abc_Clock.exit23:                                 ; preds = %21, %24
  %.0.i22 = phi i64 [ %30, %24 ], [ -1, %21 ]
  call void @llvm.lifetime.end.p0(i64 16, ptr nonnull %4) #18
  %31 = add i64 %.0.i22, %.0.i.neg
  %32 = sitofp i64 %31 to double
  %33 = fdiv double %32, 1.000000e+06
  call void (i32, ptr, ...) @Abc_Print(i32 poison, ptr noundef nonnull @.str.5, double noundef %33)
  br label %35

34:                                               ; preds = %14, %19
  %putchar = call i32 @putchar(i32 10)
  br label %35

35:                                               ; preds = %34, %Abc_Clock.exit23
  br i1 %13, label %36, label %37

36:                                               ; preds = %35
  %puts = call i32 @puts(ptr nonnull dereferenceable(1) @str.1)
  br label %56

37:                                               ; preds = %35
  %38 = getelementptr i8, ptr %0, i64 32
  %.val21 = load ptr, ptr %38, align 8, !tbaa !38
  %39 = getelementptr i8, ptr %.val21, i64 4
  %.val21.val = load i32, ptr %39, align 4, !tbaa !39
  %40 = sext i32 %.val21.val to i64
  %41 = mul nsw i64 %40, 12
  %42 = call noalias ptr @malloc(i64 noundef %41) #21
  %43 = getelementptr inbounds ptr, ptr %42, i64 %40
  %44 = icmp sgt i32 %.val21.val, 0
  br i1 %44, label %.lr.ph.preheader.i, label %Vec_PtrAllocSimInfo.exit

.lr.ph.preheader.i:                               ; preds = %37
  %wide.trip.count.i = zext nneg i32 %.val21.val to i64
  br label %.lr.ph.i

.lr.ph.i:                                         ; preds = %.lr.ph.i, %.lr.ph.preheader.i
  %indvars.iv.i = phi i64 [ 0, %.lr.ph.preheader.i ], [ %indvars.iv.next.i, %.lr.ph.i ]
  %45 = getelementptr inbounds nuw i32, ptr %43, i64 %indvars.iv.i
  %46 = getelementptr inbounds nuw ptr, ptr %42, i64 %indvars.iv.i
  store ptr %45, ptr %46, align 8, !tbaa !24
  %indvars.iv.next.i = add nuw nsw i64 %indvars.iv.i, 1
  %exitcond.not.i = icmp eq i64 %indvars.iv.next.i, %wide.trip.count.i
  br i1 %exitcond.not.i, label %Vec_PtrAllocSimInfo.exit, label %.lr.ph.i, !llvm.loop !67

Vec_PtrAllocSimInfo.exit:                         ; preds = %.lr.ph.i, %37
  %47 = call noalias dereferenceable_or_null(16) ptr @malloc(i64 noundef 16) #21
  %48 = getelementptr inbounds nuw i8, ptr %47, i64 4
  store i32 %.val21.val, ptr %48, align 4, !tbaa !39
  store i32 %.val21.val, ptr %47, align 8, !tbaa !68
  %49 = getelementptr inbounds nuw i8, ptr %47, i64 8
  store ptr %42, ptr %49, align 8, !tbaa !3
  %50 = call i32 @Saig_SynchSequenceRun(ptr noundef %0, ptr noundef nonnull %47, ptr noundef nonnull %12, i32 noundef 1)
  %51 = call ptr @Saig_ManDupInitZero(ptr noundef %0)
  %.not.i = icmp eq ptr %42, null
  br i1 %.not.i, label %Vec_PtrFree.exit, label %52

52:                                               ; preds = %Vec_PtrAllocSimInfo.exit
  call void @free(ptr noundef nonnull %42) #18
  br label %Vec_PtrFree.exit

Vec_PtrFree.exit:                                 ; preds = %Vec_PtrAllocSimInfo.exit, %52
  call void @free(ptr noundef nonnull %47) #18
  %53 = getelementptr inbounds nuw i8, ptr %12, i64 8
  %54 = load ptr, ptr %53, align 8, !tbaa !63
  %.not.i24 = icmp eq ptr %54, null
  br i1 %.not.i24, label %Vec_StrFree.exit, label %55

55:                                               ; preds = %Vec_PtrFree.exit
  call void @free(ptr noundef nonnull %54) #18
  br label %Vec_StrFree.exit

Vec_StrFree.exit:                                 ; preds = %Vec_PtrFree.exit, %55
  call void @free(ptr noundef nonnull %12) #18
  call void @Aig_ManCleanMarkA(ptr noundef %0) #18
  br label %56

56:                                               ; preds = %Vec_StrFree.exit, %36
  %.0 = phi ptr [ null, %36 ], [ %51, %Vec_StrFree.exit ]
  ret ptr %.0
}